; Function Attrs: nounwind sspstrong uwtable
define dso_local i64 @rb_dbl_complex_new(double noundef %0, double noundef %1) local_unnamed_addr #0 {
  %3 = bitcast double %0 to i64
  %cond.i = icmp eq i64 %3, 3458764513820540928
  br i1 %cond.i, label %15, label %4

4:                                                ; preds = %2
  %5 = lshr i64 %3, 60
  %6 = trunc nuw nsw i64 %5 to i32
  %7 = and i32 %6, 7
  %8 = add nsw i32 %7, -3
  %.not7.i = icmp ult i32 %8, 2
  br i1 %.not7.i, label %9, label %13

9:                                                ; preds = %4
  %10 = tail call noundef i64 @llvm.fshl.i64(i64 range(i64 3458764513820540929, 3458764513820540928) %3, i64 range(i64 3458764513820540929, 3458764513820540928) %3, i64 3)
  %11 = and i64 %10, -4
  %12 = or disjoint i64 %11, 2
  br label %rb_float_new_inline.exit

13:                                               ; preds = %4
  %14 = icmp eq i64 %3, 0
  br i1 %14, label %rb_float_new_inline.exit, label %15

15:                                               ; preds = %13, %2
  %16 = tail call i64 @rb_float_new_in_heap(double noundef %0) #17
  br label %rb_float_new_inline.exit

rb_float_new_inline.exit:                         ; preds = %9, %13, %15
  %.0.i = phi i64 [ %16, %15 ], [ %12, %9 ], [ -9223372036854775806, %13 ]
  %17 = bitcast double %1 to i64
  %cond.i2 = icmp eq i64 %17, 3458764513820540928
  br i1 %cond.i2, label %29, label %18

18:                                               ; preds = %rb_float_new_inline.exit
  %19 = lshr i64 %17, 60
  %20 = trunc nuw nsw i64 %19 to i32
  %21 = and i32 %20, 7
  %22 = add nsw i32 %21, -3
  %.not7.i3 = icmp ult i32 %22, 2
  br i1 %.not7.i3, label %23, label %27

23:                                               ; preds = %18
  %24 = tail call noundef i64 @llvm.fshl.i64(i64 range(i64 3458764513820540929, 3458764513820540928) %17, i64 range(i64 3458764513820540929, 3458764513820540928) %17, i64 3)
  %25 = and i64 %24, -4
  %26 = or disjoint i64 %25, 2
  br label %rb_float_new_inline.exit5

27:                                               ; preds = %18
  %28 = icmp eq i64 %17, 0
  br i1 %28, label %rb_float_new_inline.exit5, label %29

29:                                               ; preds = %27, %rb_float_new_inline.exit
  %30 = tail call i64 @rb_float_new_in_heap(double noundef %1) #17
  br label %rb_float_new_inline.exit5

rb_float_new_inline.exit5:                        ; preds = %23, %27, %29
  %.0.i4 = phi i64 [ %30, %29 ], [ %26, %23 ], [ -9223372036854775806, %27 ]
  %31 = load i64, ptr @rb_cComplex, align 8, !tbaa !11
  %32 = tail call align 8 ptr @llvm.threadlocal.address.p0(ptr align 8 @ruby_current_ec)
  %33 = load ptr, ptr %32, align 8, !tbaa !27
  %34 = tail call i64 @rb_wb_protected_newobj_of(ptr noundef %33, i64 noundef %31, i64 noundef 14, i64 noundef 32) #17
  %35 = inttoptr i64 %34 to ptr
  %36 = getelementptr inbounds nuw i8, ptr %35, i64 16
  store i64 %.0.i, ptr %36, align 8, !tbaa !11
  %37 = icmp eq i64 %.0.i, 0
  %38 = and i64 %.0.i, 7
  %39 = icmp ne i64 %38, 0
  %40 = or i1 %37, %39
  br i1 %40, label %rb_obj_write.exit.i.i, label %41

41:                                               ; preds = %rb_float_new_inline.exit5
  tail call void @rb_gc_writebarrier(i64 noundef %34, i64 noundef %.0.i) #17
  br label %rb_obj_write.exit.i.i

rb_obj_write.exit.i.i:                            ; preds = %41, %rb_float_new_inline.exit5
  %42 = getelementptr inbounds nuw i8, ptr %35, i64 24
  store i64 %.0.i4, ptr %42, align 8, !tbaa !11
  %43 = icmp eq i64 %.0.i4, 0
  %44 = and i64 %.0.i4, 7
  %45 = icmp ne i64 %44, 0
  %46 = or i1 %43, %45
  br i1 %46, label %rb_complex_raw.exit, label %47

47:                                               ; preds = %rb_obj_write.exit.i.i
  tail call void @rb_gc_writebarrier(i64 noundef %34, i64 noundef %.0.i4) #17
  br label %rb_complex_raw.exit

rb_complex_raw.exit:                              ; preds = %rb_obj_write.exit.i.i, %47
  tail call void @rb_obj_freeze_inline(i64 noundef %34) #17
  ret i64 %34
}